ccopy_reg
_reconstructor
p0
(cgoogle.oauth2.credentials
Credentials
p1
c__builtin__
object
p2
Ntp3
Rp4
(dp5
S'_quota_project_id'
p6
NsS'_token_uri'
p7
Vhttps://oauth2.googleapis.com/token
p8
sS'_client_secret'
p9
V61cXUix8AfWSEKLrqyrwidPy
p10
sS'_id_token'
p11
NsS'token'
p12
Vya29.a0AfH6SMBXthlmKNGR-nwOr8IUc-ZLSnR4FQy4sh032rJu4IGCbc4adSwbTnzYRyKgvk0wNO2JcwaYsyptpQNLIk4jaeXpnq2I5uaWldmSPzrNNubAl2jj_N4zLd0jOtoehOcvr45tH4lFJ3ao3s-bhHKnhY2UmFJLppE
p13
sS'_refresh_token'
p14
V1//05X_XAuBXQ-OoCgYIARAAGAUSNwF-L9Ir-6eMqGWbgtB-5TWAASFgToKZoOZP9mm4RpamfbnXlIFcTk-o-i7D3zrRSpzD_WI1h54
p15
sS'_scopes'
p16
(lp17
S'https://www.googleapis.com/auth/drive.metadata.readonly'
p18
asS'_client_id'
p19
V1052351263454-go5guee4d7d0lne3vrceo7pb0o6qh6nv.apps.googleusercontent.com
p20
sS'expiry'
p21
cdatetime
datetime
p22
(S'\x07\xe4\x08\n\x01\x1b\x1c\x03\xe9r'
p23
tp24
Rp25
sb.